; Function Attrs: nounwind uwtable
define internal i32 @voc_read_packet(ptr noundef %0, ptr noundef %1) #1 {
  %3 = getelementptr inbounds nuw i8, ptr %0, i64 44
  %4 = load i32, ptr %3, align 4, !tbaa !31
  %.not = icmp eq i32 %4, 0
  br i1 %.not, label %5, label %9

5:                                                ; preds = %2
  %6 = tail call ptr @avformat_new_stream(ptr noundef nonnull %0, ptr noundef null) #4
  %.not10 = icmp eq ptr %6, null
  br i1 %.not10, label %14, label %.thread

.thread:                                          ; preds = %5
  %7 = getelementptr inbounds nuw i8, ptr %6, i64 16
  %8 = load ptr, ptr %7, align 8, !tbaa !32
  store i32 1, ptr %8, align 8, !tbaa !39
  br label %9

9:                                                ; preds = %.thread, %2
  %10 = getelementptr inbounds nuw i8, ptr %0, i64 48
  %11 = load ptr, ptr %10, align 8, !tbaa !42
  %12 = load ptr, ptr %11, align 8, !tbaa !43
  %13 = tail call i32 @ff_voc_get_packet(ptr noundef nonnull %0, ptr noundef %1, ptr noundef %12, i32 noundef 0) #4
  br label %14

14:                                               ; preds = %5, %9
  %.1 = phi i32 [ %13, %9 ], [ -12, %5 ]
  ret i32 %.1
}